target datalayout = "e-m:e-p270:32:32-p271:32:32-p272:64:64-i64:64-i128:128-f80:128-n8:16:32:64-S128"
target triple = "x86_64-pc-linux-gnu"

%"class.llvm::cl::opt" = type { %"class.llvm::cl::Option", %"class.llvm::cl::opt_storage", %"class.llvm::cl::parser", %"class.std::function" }
%"class.llvm::cl::Option" = type { ptr, i16, i16, i16, i16, %"class.llvm::StringRef", %"class.llvm::StringRef", %"class.llvm::StringRef", %"class.llvm::SmallVector", %"class.llvm::SmallPtrSet" }
%"class.llvm::StringRef" = type { ptr, i64 }
%"class.llvm::SmallVector" = type { %"class.llvm::SmallVectorImpl", %"struct.llvm::SmallVectorStorage" }
%"class.llvm::SmallVectorImpl" = type { %"class.llvm::SmallVectorTemplateBase" }
%"class.llvm::SmallVectorTemplateBase" = type { %"class.llvm::SmallVectorTemplateCommon" }
%"class.llvm::SmallVectorTemplateCommon" = type { %"class.llvm::SmallVectorBase" }
%"class.llvm::SmallVectorBase" = type { ptr, i32, i32 }
%"struct.llvm::SmallVectorStorage" = type { [8 x i8] }
%"class.llvm::SmallPtrSet" = type { %"class.llvm::SmallPtrSetImpl.base", [1 x ptr] }
%"class.llvm::SmallPtrSetImpl.base" = type { %"class.llvm::SmallPtrSetImplBase.base" }
%"class.llvm::SmallPtrSetImplBase.base" = type <{ ptr, ptr, i32, i32, i32 }>
%"class.llvm::cl::opt_storage" = type { i8, [7 x i8], %"struct.llvm::cl::OptionValue" }
%"struct.llvm::cl::OptionValue" = type { %"struct.llvm::cl::OptionValueBase.base", [6 x i8] }
%"struct.llvm::cl::OptionValueBase.base" = type { %"class.llvm::cl::OptionValueCopy.base" }
%"class.llvm::cl::OptionValueCopy.base" = type <{ %"struct.llvm::cl::GenericOptionValue", i8, i8 }>
%"struct.llvm::cl::GenericOptionValue" = type { ptr }
%"class.llvm::cl::parser" = type { %"class.llvm::cl::basic_parser" }
%"class.llvm::cl::basic_parser" = type { %"class.llvm::cl::basic_parser_impl" }
%"class.llvm::cl::basic_parser_impl" = type { ptr }
%"class.std::function" = type { %"class.std::_Function_base", ptr }
%"class.std::_Function_base" = type { %"union.std::_Any_data", ptr }
%"union.std::_Any_data" = type { %"union.std::_Nocopy_types" }
%"union.std::_Nocopy_types" = type { { i64, i64 } }
%"struct.std::array.1224" = type { [2 x i16] }
%"class.clang::SourceLocation" = type { i32 }
%"class.std::vector.729" = type { %"struct.std::_Vector_base.730" }
%"struct.std::_Vector_base.730" = type { %"struct.std::_Vector_base<llvm::coverage::CounterExpression, std::allocator<llvm::coverage::CounterExpression>>::_Vector_impl" }
%"struct.std::_Vector_base<llvm::coverage::CounterExpression, std::allocator<llvm::coverage::CounterExpression>>::_Vector_impl" = type { %"struct.std::_Vector_base<llvm::coverage::CounterExpression, std::allocator<llvm::coverage::CounterExpression>>::_Vector_impl_data" }
%"struct.std::_Vector_base<llvm::coverage::CounterExpression, std::allocator<llvm::coverage::CounterExpression>>::_Vector_impl_data" = type { ptr, ptr, ptr }
%"struct.llvm::coverage::Counter" = type { i32, i32 }
%"class.std::variant" = type { %"struct.std::__detail::__variant::_Variant_base.base", [3 x i8] }
%"struct.std::__detail::__variant::_Variant_base.base" = type { %"struct.std::__detail::__variant::_Move_assign_base.base" }
%"struct.std::__detail::__variant::_Move_assign_base.base" = type { %"struct.std::__detail::__variant::_Copy_assign_base.base" }
%"struct.std::__detail::__variant::_Copy_assign_base.base" = type { %"struct.std::__detail::__variant::_Move_ctor_base.base" }
%"struct.std::__detail::__variant::_Move_ctor_base.base" = type { %"struct.std::__detail::__variant::_Copy_ctor_base.base" }
%"struct.std::__detail::__variant::_Copy_ctor_base.base" = type { %"struct.std::__detail::__variant::_Variant_storage.base" }
%"struct.std::__detail::__variant::_Variant_storage.base" = type <{ %"union.std::__detail::__variant::_Variadic_union", i8 }>
%"union.std::__detail::__variant::_Variadic_union" = type { %"union.std::__detail::__variant::_Variadic_union.1220" }
%"union.std::__detail::__variant::_Variadic_union.1220" = type { %"union.std::__detail::__variant::_Variadic_union.1222", [2 x i8] }
%"union.std::__detail::__variant::_Variadic_union.1222" = type { %"struct.std::__detail::__variant::_Uninitialized.1223" }
%"struct.std::__detail::__variant::_Uninitialized.1223" = type { %"struct.llvm::coverage::mcdc::BranchParameters" }
%"struct.llvm::coverage::mcdc::BranchParameters" = type { i16, %"struct.std::array.1224" }
%"struct.(anonymous namespace)::CounterCoverageMappingBuilder" = type { %"class.(anonymous namespace)::CoverageMappingBuilder", ptr, ptr, %"class.llvm::SmallVector.767", %"class.llvm::DenseSet.772", %"struct.(anonymous namespace)::MCDCCoverageBuilder", %"class.llvm::coverage::CounterExpressionBuilder", %"class.clang::SourceLocation", i8, %"struct.llvm::coverage::Counter", %"class.llvm::SmallVector.785" }
%"class.(anonymous namespace)::CoverageMappingBuilder" = type { ptr, ptr, ptr, %"class.llvm::SmallDenseMap.754", %"class.llvm::SmallVector.757", %"class.std::vector.762" }
%"class.llvm::SmallDenseMap.754" = type { i32, i32, %"struct.llvm::AlignedCharArrayUnion.756" }
%"struct.llvm::AlignedCharArrayUnion.756" = type { [96 x i8] }
%"class.llvm::SmallVector.757" = type { %"class.llvm::SmallVectorImpl.758", %"struct.llvm::SmallVectorStorage.761" }
%"class.llvm::SmallVectorImpl.758" = type { %"class.llvm::SmallVectorTemplateBase.759" }
%"class.llvm::SmallVectorTemplateBase.759" = type { %"class.llvm::SmallVectorTemplateCommon.760" }
%"class.llvm::SmallVectorTemplateCommon.760" = type { %"class.llvm::SmallVectorBase" }
%"struct.llvm::SmallVectorStorage.761" = type { [1792 x i8] }
%"class.std::vector.762" = type { %"struct.std::_Vector_base.763" }
%"struct.std::_Vector_base.763" = type { %"struct.std::_Vector_base<(anonymous namespace)::SourceMappingRegion, std::allocator<(anonymous namespace)::SourceMappingRegion>>::_Vector_impl" }
%"struct.std::_Vector_base<(anonymous namespace)::SourceMappingRegion, std::allocator<(anonymous namespace)::SourceMappingRegion>>::_Vector_impl" = type { %"struct.std::_Vector_base<(anonymous namespace)::SourceMappingRegion, std::allocator<(anonymous namespace)::SourceMappingRegion>>::_Vector_impl_data" }
%"struct.std::_Vector_base<(anonymous namespace)::SourceMappingRegion, std::allocator<(anonymous namespace)::SourceMappingRegion>>::_Vector_impl_data" = type { ptr, ptr, ptr }
%"class.llvm::SmallVector.767" = type <{ %"class.llvm::SmallVectorImpl.768", %"struct.llvm::SmallVectorStorage.771", [4 x i8] }>
%"class.llvm::SmallVectorImpl.768" = type { %"class.llvm::SmallVectorTemplateBase.769" }
%"class.llvm::SmallVectorTemplateBase.769" = type { %"class.llvm::SmallVectorTemplateCommon.770" }
%"class.llvm::SmallVectorTemplateCommon.770" = type { %"class.llvm::SmallVectorBase" }
%"struct.llvm::SmallVectorStorage.771" = type { [52 x i8] }
%"class.llvm::DenseSet.772" = type { %"class.llvm::detail::DenseSetImpl.773" }
%"class.llvm::detail::DenseSetImpl.773" = type { %"class.llvm::DenseMap.774" }
%"class.llvm::DenseMap.774" = type <{ ptr, i32, i32, i32, [4 x i8] }>
%"struct.(anonymous namespace)::MCDCCoverageBuilder" = type <{ ptr, %"class.llvm::SmallVector.777", ptr, ptr, i16, i8, [5 x i8] }>
%"class.llvm::SmallVector.777" = type { %"class.llvm::SmallVectorImpl.778", %"struct.llvm::SmallVectorStorage.781" }
%"class.llvm::SmallVectorImpl.778" = type { %"class.llvm::SmallVectorTemplateBase.779" }
%"class.llvm::SmallVectorTemplateBase.779" = type { %"class.llvm::SmallVectorTemplateCommon.780" }
%"class.llvm::SmallVectorTemplateCommon.780" = type { %"class.llvm::SmallVectorBase" }
%"struct.llvm::SmallVectorStorage.781" = type { [48 x i8] }
%"class.llvm::coverage::CounterExpressionBuilder" = type { %"class.std::vector.729", %"class.llvm::DenseMap.782" }
%"class.llvm::DenseMap.782" = type <{ ptr, i32, i32, i32, [4 x i8] }>
%"class.llvm::SmallVector.785" = type { %"class.llvm::SmallVectorImpl.786", %"struct.llvm::SmallVectorStorage.789" }
%"class.llvm::SmallVectorImpl.786" = type { %"class.llvm::SmallVectorTemplateBase.787" }
%"class.llvm::SmallVectorTemplateBase.787" = type { %"class.llvm::SmallVectorTemplateCommon.788" }
%"class.llvm::SmallVectorTemplateCommon.788" = type { %"class.llvm::SmallVectorBase" }
%"struct.llvm::SmallVectorStorage.789" = type { [128 x i8] }
%"class.std::optional.1278" = type { %"struct.std::_Optional_base.1279" }
%"struct.std::_Optional_base.1279" = type { %"struct.std::_Optional_payload.1281" }
%"struct.std::_Optional_payload.1281" = type { %"struct.std::_Optional_payload_base.base.1283", [3 x i8] }
%"struct.std::_Optional_payload_base.base.1283" = type <{ %"union.std::_Optional_payload_base<clang::SourceLocation>::_Storage", i8 }>
%"union.std::_Optional_payload_base<clang::SourceLocation>::_Storage" = type { %"class.clang::SourceLocation" }
%"class.std::optional.1286" = type { %"struct.std::_Optional_base.1287" }
%"struct.std::_Optional_base.1287" = type { %"struct.std::_Optional_payload.1289" }
%"struct.std::_Optional_payload.1289" = type { %"struct.std::_Optional_payload_base.base.1291", [3 x i8] }
%"struct.std::_Optional_payload_base.base.1291" = type <{ %"union.std::_Optional_payload_base<llvm::coverage::Counter>::_Storage", i8 }>
%"union.std::_Optional_payload_base<llvm::coverage::Counter>::_Storage" = type { %"struct.llvm::coverage::Counter" }
%"class.(anonymous namespace)::SourceMappingRegion" = type <{ %"struct.llvm::coverage::Counter", %"class.std::optional.1286", %"class.std::variant", %"class.std::optional.1278", %"class.std::optional.1278", i8, i8, [2 x i8] }>
%"struct.(anonymous namespace)::CounterCoverageMappingBuilder::BreakContinue" = type { %"struct.llvm::coverage::Counter", %"struct.llvm::coverage::Counter" }

@_ZN4llvm24EnableSingleByteCoverageE = global %"class.llvm::cl::opt" zeroinitializer, align 8

; Function Attrs: mustprogress nounwind uwtable
define internal noundef ptr @_ZN4llvm25SmallVectorTemplateCommonIN12_GLOBAL__N_119SourceMappingRegionEvE5beginEv(ptr noundef nonnull align 8 dereferenceable(16) %0) #1 align 2 {
  %2 = alloca ptr, align 8
  store ptr %0, ptr %2, align 8
  %3 = load ptr, ptr %2, align 8
  %4 = getelementptr inbounds nuw %"class.llvm::SmallVectorBase", ptr %3, i32 0, i32 0
  %5 = load ptr, ptr %4, align 8
  ret ptr %5
}

; Function Attrs: mustprogress nounwind uwtable
define internal noundef ptr @_ZN4llvm25SmallVectorTemplateCommonIN12_GLOBAL__N_119SourceMappingRegionEvE3endEv(ptr noundef nonnull align 8 dereferenceable(16) %0) #1 align 2 {
  %2 = alloca ptr, align 8
  store ptr %0, ptr %2, align 8
  %3 = load ptr, ptr %2, align 8
  %4 = call noundef ptr @_ZN4llvm25SmallVectorTemplateCommonIN12_GLOBAL__N_119SourceMappingRegionEvE5beginEv(ptr noundef nonnull align 8 dereferenceable(16) %3)
  %5 = call noundef i64 @_ZNK4llvm15SmallVectorBaseIjE4sizeEv(ptr noundef nonnull align 8 dereferenceable(16) %3)
  %6 = getelementptr inbounds %"class.(anonymous namespace)::SourceMappingRegion", ptr %4, i64 %5
  ret ptr %6
}

; Function Attrs: mustprogress nounwind uwtable
define internal noundef ptr @_ZN4llvm25SmallVectorTemplateCommonIN12_GLOBAL__N_129CounterCoverageMappingBuilder13BreakContinueEvE5beginEv(ptr noundef nonnull align 8 dereferenceable(16) %0) #1 align 2 {
  %2 = alloca ptr, align 8
  store ptr %0, ptr %2, align 8
  %3 = load ptr, ptr %2, align 8
  %4 = getelementptr inbounds nuw %"class.llvm::SmallVectorBase", ptr %3, i32 0, i32 0
  %5 = load ptr, ptr %4, align 8
  ret ptr %5
}

; Function Attrs: mustprogress nounwind uwtable
define internal noundef nonnull align 4 dereferenceable(50) ptr @_ZN4llvm25SmallVectorTemplateCommonIN12_GLOBAL__N_119SourceMappingRegionEvE4backEv(ptr noundef nonnull align 8 dereferenceable(16) %0) #1 align 2 {
  %2 = alloca ptr, align 8
  store ptr %0, ptr %2, align 8
  %3 = load ptr, ptr %2, align 8
  %4 = call noundef ptr @_ZN4llvm25SmallVectorTemplateCommonIN12_GLOBAL__N_119SourceMappingRegionEvE3endEv(ptr noundef nonnull align 8 dereferenceable(16) %3)
  %5 = getelementptr inbounds %"class.(anonymous namespace)::SourceMappingRegion", ptr %4, i64 -1
  ret ptr %5
}

; Function Attrs: mustprogress nounwind uwtable
define internal noundef ptr @_ZN4llvm25SmallVectorTemplateCommonIN12_GLOBAL__N_129CounterCoverageMappingBuilder13BreakContinueEvE3endEv(ptr noundef nonnull align 8 dereferenceable(16) %0) #1 align 2 {
  %2 = alloca ptr, align 8
  store ptr %0, ptr %2, align 8
  %3 = load ptr, ptr %2, align 8
  %4 = call noundef ptr @_ZN4llvm25SmallVectorTemplateCommonIN12_GLOBAL__N_129CounterCoverageMappingBuilder13BreakContinueEvE5beginEv(ptr noundef nonnull align 8 dereferenceable(16) %3)
  %5 = call noundef i64 @_ZNK4llvm15SmallVectorBaseIjE4sizeEv(ptr noundef nonnull align 8 dereferenceable(16) %3)
  %6 = getelementptr inbounds %"struct.(anonymous namespace)::CounterCoverageMappingBuilder::BreakContinue", ptr %4, i64 %5
  ret ptr %6
}

; Function Attrs: mustprogress nounwind uwtable
define linkonce_odr hidden noundef zeroext i1 @_ZNK4llvm2cl11opt_storageIbLb0ELb0EE8getValueEv(ptr noundef nonnull align 8 dereferenceable(24) %0) #1 comdat align 2 {
  %2 = alloca ptr, align 8
  store ptr %0, ptr %2, align 8
  %3 = load ptr, ptr %2, align 8
  %4 = getelementptr inbounds nuw %"class.llvm::cl::opt_storage", ptr %3, i32 0, i32 0
  %5 = load i8, ptr %4, align 8
  %6 = trunc i8 %5 to i1
  ret i1 %6
}

; Function Attrs: mustprogress nounwind uwtable
define internal i64 @_ZN12_GLOBAL__N_129CounterCoverageMappingBuilder11addCountersEN4llvm8coverage7CounterES3_b(ptr noundef nonnull align 8 dereferenceable(2376) %0, i64 %1, i64 %2, i1 noundef zeroext %3) #1 align 2 {
  %5 = alloca %"struct.llvm::coverage::Counter", align 4
  %6 = alloca %"struct.llvm::coverage::Counter", align 4
  %7 = alloca %"struct.llvm::coverage::Counter", align 4
  %8 = alloca ptr, align 8
  %9 = alloca i8, align 1
  %10 = alloca %"struct.llvm::coverage::Counter", align 4
  %11 = alloca %"struct.llvm::coverage::Counter", align 4
  store i64 %1, ptr %6, align 4
  store i64 %2, ptr %7, align 4
  store ptr %0, ptr %8, align 8
  %12 = zext i1 %3 to i8
  store i8 %12, ptr %9, align 1
  %13 = load ptr, ptr %8, align 8
  %14 = getelementptr inbounds nuw %"struct.(anonymous namespace)::CounterCoverageMappingBuilder", ptr %13, i32 0, i32 6
  call void @llvm.memcpy.p0.p0.i64(ptr align 4 %10, ptr align 4 %6, i64 8, i1 false)
  call void @llvm.memcpy.p0.p0.i64(ptr align 4 %11, ptr align 4 %7, i64 8, i1 false)
  %15 = load i8, ptr %9, align 1
  %16 = trunc i8 %15 to i1
  %17 = load i64, ptr %10, align 4
  %18 = load i64, ptr %11, align 4
  %19 = call i64 @_ZN4llvm8coverage24CounterExpressionBuilder3addENS0_7CounterES2_b(ptr noundef nonnull align 8 dereferenceable(48) %14, i64 %17, i64 %18, i1 noundef zeroext %16)
  store i64 %19, ptr %5, align 4
  %20 = load i64, ptr %5, align 4
  ret i64 %20
}

; Function Attrs: mustprogress nounwind uwtable
define internal noundef nonnull align 4 dereferenceable(8) ptr @_ZNK12_GLOBAL__N_119SourceMappingRegion10getCounterEv(ptr noundef nonnull align 4 dereferenceable(50) %0) #1 align 2 {
  %2 = alloca ptr, align 8
  store ptr %0, ptr %2, align 8
  %3 = load ptr, ptr %2, align 8
  %4 = getelementptr inbounds nuw %"class.(anonymous namespace)::SourceMappingRegion", ptr %3, i32 0, i32 0
  ret ptr %4
}

; Function Attrs: mustprogress nounwind uwtable
define internal noundef nonnull align 4 dereferenceable(50) ptr @_ZN12_GLOBAL__N_129CounterCoverageMappingBuilder9getRegionEv(ptr noundef nonnull align 8 dereferenceable(2376) %0) #1 align 2 {
  %2 = alloca ptr, align 8
  store ptr %0, ptr %2, align 8
  %3 = load ptr, ptr %2, align 8
  %4 = getelementptr inbounds nuw %"struct.(anonymous namespace)::CounterCoverageMappingBuilder", ptr %3, i32 0, i32 3
  %5 = call noundef nonnull align 4 dereferenceable(50) ptr @_ZN4llvm25SmallVectorTemplateCommonIN12_GLOBAL__N_119SourceMappingRegionEvE4backEv(ptr noundef nonnull align 8 dereferenceable(16) %4)
  ret ptr %5
}

; Function Attrs: mustprogress nounwind uwtable
define internal noundef nonnull align 4 dereferenceable(16) ptr @_ZN4llvm25SmallVectorTemplateCommonIN12_GLOBAL__N_129CounterCoverageMappingBuilder13BreakContinueEvE4backEv(ptr noundef nonnull align 8 dereferenceable(16) %0) #1 align 2 {
  %2 = alloca ptr, align 8
  store ptr %0, ptr %2, align 8
  %3 = load ptr, ptr %2, align 8
  %4 = call noundef ptr @_ZN4llvm25SmallVectorTemplateCommonIN12_GLOBAL__N_129CounterCoverageMappingBuilder13BreakContinueEvE3endEv(ptr noundef nonnull align 8 dereferenceable(16) %3)
  %5 = getelementptr inbounds %"struct.(anonymous namespace)::CounterCoverageMappingBuilder::BreakContinue", ptr %4, i64 -1
  ret ptr %5
}

; Function Attrs: mustprogress nounwind uwtable
define linkonce_odr hidden noundef zeroext i1 @_ZNK4llvm2cl11opt_storageIbLb0ELb0EEcvbEv(ptr noundef nonnull align 8 dereferenceable(24) %0) #1 comdat align 2 {
  %2 = alloca ptr, align 8
  store ptr %0, ptr %2, align 8
  %3 = load ptr, ptr %2, align 8
  %4 = call noundef zeroext i1 @_ZNK4llvm2cl11opt_storageIbLb0ELb0EE8getValueEv(ptr noundef nonnull align 8 dereferenceable(24) %3)
  ret i1 %4
}

; Function Attrs: mustprogress nounwind uwtable
define internal void @_ZN12_GLOBAL__N_129CounterCoverageMappingBuilder17VisitContinueStmtEPKN5clang12ContinueStmtE(ptr noundef nonnull align 8 dereferenceable(2376) %0, ptr noundef %1) #1 align 2 {
  %3 = alloca ptr, align 8
  %4 = alloca ptr, align 8
  %5 = alloca %"struct.llvm::coverage::Counter", align 4
  %6 = alloca %"struct.llvm::coverage::Counter", align 4
  %7 = alloca %"struct.llvm::coverage::Counter", align 4
  store ptr %0, ptr %3, align 8
  store ptr %1, ptr %4, align 8
  %8 = load ptr, ptr %3, align 8
  %9 = call noundef zeroext i1 @_ZNK4llvm2cl11opt_storageIbLb0ELb0EEcvbEv(ptr noundef nonnull align 8 dereferenceable(24) getelementptr inbounds (i8, ptr @_ZN4llvm24EnableSingleByteCoverageE, i64 128))
  br i1 %9, label %22, label %10

10:                                               ; preds = %2
  %11 = getelementptr inbounds nuw %"struct.(anonymous namespace)::CounterCoverageMappingBuilder", ptr %8, i32 0, i32 10
  %12 = call noundef nonnull align 4 dereferenceable(16) ptr @_ZN4llvm25SmallVectorTemplateCommonIN12_GLOBAL__N_129CounterCoverageMappingBuilder13BreakContinueEvE4backEv(ptr noundef nonnull align 8 dereferenceable(16) %11)
  %13 = getelementptr inbounds nuw %"struct.(anonymous namespace)::CounterCoverageMappingBuilder::BreakContinue", ptr %12, i32 0, i32 1
  call void @llvm.memcpy.p0.p0.i64(ptr align 4 %6, ptr align 4 %13, i64 8, i1 false)
  %14 = call noundef nonnull align 4 dereferenceable(50) ptr @_ZN12_GLOBAL__N_129CounterCoverageMappingBuilder9getRegionEv(ptr noundef nonnull align 8 dereferenceable(2376) %8)
  %15 = call noundef nonnull align 4 dereferenceable(8) ptr @_ZNK12_GLOBAL__N_119SourceMappingRegion10getCounterEv(ptr noundef nonnull align 4 dereferenceable(50) %14)
  call void @llvm.memcpy.p0.p0.i64(ptr align 4 %7, ptr align 4 %15, i64 8, i1 false)
  %16 = load i64, ptr %6, align 4
  %17 = load i64, ptr %7, align 4
  %18 = call i64 @_ZN12_GLOBAL__N_129CounterCoverageMappingBuilder11addCountersEN4llvm8coverage7CounterES3_b(ptr noundef nonnull align 8 dereferenceable(2376) %8, i64 %16, i64 %17, i1 noundef zeroext true)
  store i64 %18, ptr %5, align 4
  %19 = getelementptr inbounds nuw %"struct.(anonymous namespace)::CounterCoverageMappingBuilder", ptr %8, i32 0, i32 10
  %20 = call noundef nonnull align 4 dereferenceable(16) ptr @_ZN4llvm25SmallVectorTemplateCommonIN12_GLOBAL__N_129CounterCoverageMappingBuilder13BreakContinueEvE4backEv(ptr noundef nonnull align 8 dereferenceable(16) %19)
  %21 = getelementptr inbounds nuw %"struct.(anonymous namespace)::CounterCoverageMappingBuilder::BreakContinue", ptr %20, i32 0, i32 1
  call void @llvm.memcpy.p0.p0.i64(ptr align 4 %21, ptr align 4 %5, i64 8, i1 false)
  br label %22

22:                                               ; preds = %10, %2
  %23 = load ptr, ptr %4, align 8
  call void @_ZN12_GLOBAL__N_129CounterCoverageMappingBuilder15terminateRegionEPKN5clang4StmtE(ptr noundef nonnull align 8 dereferenceable(2376) %8, ptr noundef %23)
  ret void
}